target datalayout = "e-m:e-p270:32:32-p271:32:32-p272:64:64-i64:64-i128:128-f80:128-n8:16:32:64-S128"
target triple = "x86_64-pc-linux-gnu"

%class.Expression = type { ptr, i32, i32, ptr }

@_ZN10Bookkeeper15cmp_ptr_to_nullE = dso_local global i32 0, align 4
@_ZN10Bookkeeper14cmp_ptr_to_ptrE = dso_local global i32 0, align 4
@_ZN10Bookkeeper15cmp_ptr_to_addrE = dso_local global i32 0, align 4

; Function Attrs: mustprogress uwtable
define dso_local void @_ZN10Bookkeeper26record_pointer_comparisonsEPK10ExpressionS2_(ptr noundef %0, ptr noundef %1) #5 align 2 {
  %3 = alloca ptr, align 8
  %4 = alloca ptr, align 8
  %5 = alloca ptr, align 8
  %6 = alloca ptr, align 8
  store ptr %0, ptr %3, align 8, !tbaa !133
  store ptr %1, ptr %4, align 8, !tbaa !133
  %7 = load ptr, ptr %3, align 8, !tbaa !133
  %8 = getelementptr inbounds nuw %class.Expression, ptr %7, i32 0, i32 1
  %9 = load i32, ptr %8, align 8, !tbaa !162
  %10 = icmp ne i32 %9, 2
  br i1 %10, label %11, label %66

11:                                               ; preds = %2
  %12 = load ptr, ptr %4, align 8, !tbaa !133
  %13 = getelementptr inbounds nuw %class.Expression, ptr %12, i32 0, i32 1
  %14 = load i32, ptr %13, align 8, !tbaa !162
  %15 = icmp ne i32 %14, 2
  br i1 %15, label %16, label %66

16:                                               ; preds = %11
  %17 = load ptr, ptr %3, align 8, !tbaa !133
  %18 = getelementptr inbounds nuw %class.Expression, ptr %17, i32 0, i32 1
  %19 = load i32, ptr %18, align 8, !tbaa !162
  %20 = icmp eq i32 %19, 1
  br i1 %20, label %21, label %26

21:                                               ; preds = %16
  %22 = load ptr, ptr %4, align 8, !tbaa !133
  %23 = getelementptr inbounds nuw %class.Expression, ptr %22, i32 0, i32 1
  %24 = load i32, ptr %23, align 8, !tbaa !162
  %25 = icmp eq i32 %24, 0
  br i1 %25, label %36, label %26

26:                                               ; preds = %21, %16
  %27 = load ptr, ptr %4, align 8, !tbaa !133
  %28 = getelementptr inbounds nuw %class.Expression, ptr %27, i32 0, i32 1
  %29 = load i32, ptr %28, align 8, !tbaa !162
  %30 = icmp eq i32 %29, 1
  br i1 %30, label %31, label %39

31:                                               ; preds = %26
  %32 = load ptr, ptr %3, align 8, !tbaa !133
  %33 = getelementptr inbounds nuw %class.Expression, ptr %32, i32 0, i32 1
  %34 = load i32, ptr %33, align 8, !tbaa !162
  %35 = icmp eq i32 %34, 0
  br i1 %35, label %36, label %39

36:                                               ; preds = %31, %21
  %37 = load i32, ptr @_ZN10Bookkeeper15cmp_ptr_to_nullE, align 4, !tbaa !15
  %38 = add nsw i32 %37, 1
  store i32 %38, ptr @_ZN10Bookkeeper15cmp_ptr_to_nullE, align 4, !tbaa !15
  br label %65

39:                                               ; preds = %31, %26
  %40 = load ptr, ptr %3, align 8, !tbaa !133
  %41 = getelementptr inbounds nuw %class.Expression, ptr %40, i32 0, i32 1
  %42 = load i32, ptr %41, align 8, !tbaa !162
  %43 = icmp eq i32 %42, 1
  br i1 %43, label %44, label %64

44:                                               ; preds = %39
  %45 = load ptr, ptr %4, align 8, !tbaa !133
  %46 = getelementptr inbounds nuw %class.Expression, ptr %45, i32 0, i32 1
  %47 = load i32, ptr %46, align 8, !tbaa !162
  %48 = icmp eq i32 %47, 1
  br i1 %48, label %49, label %64

49:                                               ; preds = %44
  call void @llvm.lifetime.start.p0(i64 8, ptr %5) #3
  %50 = load ptr, ptr %3, align 8, !tbaa !133
  store ptr %50, ptr %5, align 8, !tbaa !165
  call void @llvm.lifetime.start.p0(i64 8, ptr %6) #3
  %51 = load ptr, ptr %4, align 8, !tbaa !133
  store ptr %51, ptr %6, align 8, !tbaa !165
  %52 = load ptr, ptr %5, align 8, !tbaa !165
  %53 = call noundef i32 @_ZNK18ExpressionVariable18get_indirect_levelEv(ptr noundef nonnull align 8 dereferenceable(40) %52)
  %54 = load ptr, ptr %6, align 8, !tbaa !165
  %55 = call noundef i32 @_ZNK18ExpressionVariable18get_indirect_levelEv(ptr noundef nonnull align 8 dereferenceable(40) %54)
  %56 = icmp eq i32 %53, %55
  br i1 %56, label %57, label %60

57:                                               ; preds = %49
  %58 = load i32, ptr @_ZN10Bookkeeper14cmp_ptr_to_ptrE, align 4, !tbaa !15
  %59 = add nsw i32 %58, 1
  store i32 %59, ptr @_ZN10Bookkeeper14cmp_ptr_to_ptrE, align 4, !tbaa !15
  br label %63

60:                                               ; preds = %49
  %61 = load i32, ptr @_ZN10Bookkeeper15cmp_ptr_to_addrE, align 4, !tbaa !15
  %62 = add nsw i32 %61, 1
  store i32 %62, ptr @_ZN10Bookkeeper15cmp_ptr_to_addrE, align 4, !tbaa !15
  br label %63

63:                                               ; preds = %60, %57
  call void @llvm.lifetime.end.p0(i64 8, ptr %6) #3
  call void @llvm.lifetime.end.p0(i64 8, ptr %5) #3
  br label %64

64:                                               ; preds = %63, %44, %39
  br label %65

65:                                               ; preds = %64, %36
  br label %66

66:                                               ; preds = %65, %11, %2
  ret void
}