; Function Attrs: mustprogress uwtable
define dso_local void @_ZN10Bookkeeper26record_pointer_comparisonsEPK10ExpressionS2_(ptr noundef %0, ptr noundef %1) local_unnamed_addr #6 align 2 {
  %3 = getelementptr inbounds nuw i8, ptr %0, i64 8
  %4 = load i32, ptr %3, align 8, !tbaa !153
  %.not = icmp eq i32 %4, 2
  br i1 %.not, label %.thread14, label %5

5:                                                ; preds = %2
  %6 = getelementptr inbounds nuw i8, ptr %1, i64 8
  %7 = load i32, ptr %6, align 8, !tbaa !153
  %.not13 = icmp eq i32 %7, 2
  br i1 %.not13, label %.thread14, label %8

8:                                                ; preds = %5
  %9 = icmp eq i32 %4, 1
  %10 = icmp eq i32 %7, 0
  %or.cond = and i1 %9, %10
  br i1 %or.cond, label %.thread14.sink.split, label %11

11:                                               ; preds = %8
  %12 = icmp eq i32 %7, 1
  br i1 %12, label %13, label %.thread14

13:                                               ; preds = %11
  %14 = icmp eq i32 %4, 0
  br i1 %14, label %.thread14.sink.split, label %15

15:                                               ; preds = %13
  br i1 %9, label %16, label %.thread14

16:                                               ; preds = %15
  %17 = tail call noundef i32 @_ZNK18ExpressionVariable18get_indirect_levelEv(ptr noundef nonnull align 8 dereferenceable(40) %0)
  %18 = tail call noundef i32 @_ZNK18ExpressionVariable18get_indirect_levelEv(ptr noundef nonnull align 8 dereferenceable(40) %1)
  %19 = icmp eq i32 %17, %18
  %_ZN10Bookkeeper14cmp_ptr_to_ptrE._ZN10Bookkeeper15cmp_ptr_to_addrE = select i1 %19, ptr @_ZN10Bookkeeper14cmp_ptr_to_ptrE, ptr @_ZN10Bookkeeper15cmp_ptr_to_addrE
  br label %.thread14.sink.split

.thread14.sink.split:                             ; preds = %16, %13, %8
  %_ZN10Bookkeeper14cmp_ptr_to_ptrE.sink16 = phi ptr [ @_ZN10Bookkeeper15cmp_ptr_to_nullE, %8 ], [ @_ZN10Bookkeeper15cmp_ptr_to_nullE, %13 ], [ %_ZN10Bookkeeper14cmp_ptr_to_ptrE._ZN10Bookkeeper15cmp_ptr_to_addrE, %16 ]
  %20 = load i32, ptr %_ZN10Bookkeeper14cmp_ptr_to_ptrE.sink16, align 4, !tbaa !12
  %21 = add nsw i32 %20, 1
  store i32 %21, ptr %_ZN10Bookkeeper14cmp_ptr_to_ptrE.sink16, align 4, !tbaa !12
  br label %.thread14

.thread14:                                        ; preds = %.thread14.sink.split, %11, %15, %5, %2
  ret void
}